; ModuleID = 'source-C-CXX/27/60.c'
source_filename = "source-C-CXX/27/60.c"
target datalayout = "e-m:e-p270:32:32-p271:32:32-p272:64:64-i64:64-f80:128-n8:16:32:64-S128"
target triple = "x86_64-pc-linux-gnu"

@.str = private unnamed_addr constant [3 x i8] c"%s\00", align 1
@.str.1 = private unnamed_addr constant [3 x i8] c"%d\00", align 1
@.str.2 = private unnamed_addr constant [4 x i8] c",%d\00", align 1

; Function Attrs: nofree nounwind sspstrong uwtable
define dso_local void @main() local_unnamed_addr #0 {
  %1 = alloca [500 x [60 x i8]], align 16
  %2 = alloca [500 x i32], align 16
  %3 = getelementptr inbounds [500 x [60 x i8]], [500 x [60 x i8]]* %1, i64 0, i64 0, i64 0
  call void @llvm.lifetime.start.p0i8(i64 30000, i8* nonnull %3) #4
  %4 = bitcast [500 x i32]* %2 to i8*
  call void @llvm.lifetime.start.p0i8(i64 2000, i8* nonnull %4) #4
  br label %5

5:                                                ; preds = %5, %0
  %6 = phi i64 [ %10, %5 ], [ 0, %0 ]
  %7 = getelementptr inbounds [500 x [60 x i8]], [500 x [60 x i8]]* %1, i64 0, i64 %6, i64 0
  %8 = call i32 (i8*, ...) @__isoc99_scanf(i8* getelementptr inbounds ([3 x i8], [3 x i8]* @.str, i64 0, i64 0), i8* nonnull %7)
  %9 = icmp eq i32 %8, -1
  %10 = add nuw i64 %6, 1
  br i1 %9, label %11, label %5, !llvm.loop !5

11:                                               ; preds = %5
  %12 = trunc i64 %6 to i32
  %13 = icmp eq i32 %12, 0
  br i1 %13, label %38, label %14

14:                                               ; preds = %11
  %15 = and i64 %6, 4294967295
  br label %23

16:                                               ; preds = %23
  br i1 %13, label %38, label %17

17:                                               ; preds = %16
  %18 = getelementptr inbounds [500 x i32], [500 x i32]* %2, i64 0, i64 0
  %19 = load i32, i32* %18, align 16
  %20 = and i64 %6, 4294967295
  %21 = call i32 (i8*, ...) @printf(i8* nonnull dereferenceable(1) getelementptr inbounds ([3 x i8], [3 x i8]* @.str.1, i64 0, i64 0), i32 %19)
  %22 = icmp eq i64 %20, 1
  br i1 %22, label %38, label %31

23:                                               ; preds = %14, %23
  %24 = phi i64 [ 0, %14 ], [ %29, %23 ]
  %25 = getelementptr inbounds [500 x [60 x i8]], [500 x [60 x i8]]* %1, i64 0, i64 %24, i64 0
  %26 = call i64 @strlen(i8* noundef nonnull %25) #5
  %27 = trunc i64 %26 to i32
  %28 = getelementptr inbounds [500 x i32], [500 x i32]* %2, i64 0, i64 %24
  store i32 %27, i32* %28, align 4, !tbaa !7
  %29 = add nuw nsw i64 %24, 1
  %30 = icmp eq i64 %29, %15
  br i1 %30, label %16, label %23, !llvm.loop !11

31:                                               ; preds = %17, %31
  %32 = phi i64 [ %36, %31 ], [ 1, %17 ]
  %33 = getelementptr inbounds [500 x i32], [500 x i32]* %2, i64 0, i64 %32
  %34 = load i32, i32* %33, align 4, !tbaa !7
  %35 = call i32 (i8*, ...) @printf(i8* nonnull dereferenceable(1) getelementptr inbounds ([4 x i8], [4 x i8]* @.str.2, i64 0, i64 0), i32 %34)
  %36 = add nuw nsw i64 %32, 1
  %37 = icmp eq i64 %36, %20
  br i1 %37, label %38, label %31, !llvm.loop !12

38:                                               ; preds = %31, %11, %17, %16
  call void @llvm.lifetime.end.p0i8(i64 2000, i8* nonnull %4) #4
  call void @llvm.lifetime.end.p0i8(i64 30000, i8* nonnull %3) #4
  ret void
}

; Function Attrs: argmemonly mustprogress nofree nosync nounwind willreturn
declare void @llvm.lifetime.start.p0i8(i64 immarg, i8* nocapture) #1

; Function Attrs: nofree nounwind
declare noundef i32 @__isoc99_scanf(i8* nocapture noundef readonly, ...) local_unnamed_addr #2

; Function Attrs: argmemonly mustprogress nofree nounwind readonly willreturn
declare i64 @strlen(i8* nocapture) local_unnamed_addr #3

; Function Attrs: nofree nounwind
declare noundef i32 @printf(i8* nocapture noundef readonly, ...) local_unnamed_addr #2

; Function Attrs: argmemonly mustprogress nofree nosync nounwind willreturn
declare void @llvm.lifetime.end.p0i8(i64 immarg, i8* nocapture) #1


!llvm.module.flags = !{!0, !1, !2, !3}
!llvm.ident = !{!4}

!0 = !{i32 1, !"wchar_size", i32 4}
!1 = !{i32 7, !"PIC Level", i32 2}
!2 = !{i32 7, !"PIE Level", i32 2}
!3 = !{i32 7, !"uwtable", i32 1}
!4 = !{!"clang version 13.0.0"}
!5 = distinct !{!5, !6}
!6 = !{!"llvm.loop.mustprogress"}
!7 = !{!8, !8, i64 0}
!8 = !{!"int", !9, i64 0}
!9 = !{!"omnipotent char", !10, i64 0}
!10 = !{!"Simple C/C++ TBAA"}
!11 = distinct !{!11, !6}
!12 = distinct !{!12, !6, !13}
!13 = !{!"llvm.loop.peeled.count", i32 1}
